; Function Attrs: mustprogress nofree norecurse nosync nounwind willreturn memory(read, inaccessiblemem: none) uwtable
define i32 @Abc_ObjCompareById(ptr noundef readonly captures(none) %0, ptr noundef readonly captures(none) %1) #0 {
  %3 = load ptr, ptr %0, align 8
  %4 = ptrtoint ptr %3 to i64
  %5 = and i64 %4, -2
  %6 = inttoptr i64 %5 to ptr
  %7 = getelementptr i8, ptr %6, i64 16
  %.val = load i32, ptr %7, align 8
  %8 = load ptr, ptr %1, align 8
  %9 = ptrtoint ptr %8 to i64
  %10 = and i64 %9, -2
  %11 = inttoptr i64 %10 to ptr
  %12 = getelementptr i8, ptr %11, i64 16
  %.val2 = load i32, ptr %12, align 8
  %13 = sub i32 %.val, %.val2
  ret i32 %13
}